; Function Attrs: mustprogress uwtable
define void @_ZNK6casadi8Sparsity7get_ccsERSt6vectorIxSaIxEES4_(ptr noundef nonnull align 8 dereferenceable(8) %0, ptr nocapture noundef nonnull align 8 dereferenceable(24) %1, ptr nocapture noundef nonnull align 8 dereferenceable(24) %2) local_unnamed_addr #3 align 2 personality ptr @__gxx_personality_v0 {
  %4 = alloca %"class.std::vector.3", align 16
  %5 = alloca %"class.std::vector.3", align 16
  %6 = tail call noundef ptr @_ZNK6casadi12SharedObjectptEv(ptr noundef nonnull align 8 dereferenceable(8) %0), !noalias !69
  call void @_ZNK6casadi16SparsityInternal10get_colindEv(ptr dead_on_unwind nonnull writable sret(%"class.std::vector.3") align 8 %4, ptr noundef nonnull align 8 dereferenceable(56) %6)
  %7 = load ptr, ptr %1, align 8
  %8 = getelementptr inbounds i8, ptr %1, i64 16
  %9 = load <2 x ptr>, ptr %4, align 16
  store <2 x ptr> %9, ptr %1, align 8
  %10 = getelementptr inbounds i8, ptr %4, i64 16
  %11 = load ptr, ptr %10, align 16
  store ptr %11, ptr %8, align 8
  %.not.i.i.i.i.i = icmp eq ptr %7, null
  call void @llvm.memset.p0.i64(ptr noundef nonnull align 16 dereferenceable(24) %4, i8 0, i64 24, i1 false)
  br i1 %.not.i.i.i.i.i, label %_ZNSt6vectorIxSaIxEED2Ev.exit, label %_ZNSt6vectorIxSaIxEEaSEOS1_.exit

_ZNSt6vectorIxSaIxEEaSEOS1_.exit:                 ; preds = %3
  call void @_ZdlPv(ptr noundef nonnull %7) #26
  %.pr = load ptr, ptr %4, align 16
  %.not.i.i.i = icmp eq ptr %.pr, null
  br i1 %.not.i.i.i, label %_ZNSt6vectorIxSaIxEED2Ev.exit, label %12

12:                                               ; preds = %_ZNSt6vectorIxSaIxEEaSEOS1_.exit
  call void @_ZdlPv(ptr noundef nonnull %.pr) #26
  br label %_ZNSt6vectorIxSaIxEED2Ev.exit

_ZNSt6vectorIxSaIxEED2Ev.exit:                    ; preds = %3, %_ZNSt6vectorIxSaIxEEaSEOS1_.exit, %12
  %13 = call noundef ptr @_ZNK6casadi12SharedObjectptEv(ptr noundef nonnull align 8 dereferenceable(8) %0), !noalias !72
  call void @_ZNK6casadi16SparsityInternal7get_rowEv(ptr dead_on_unwind nonnull writable sret(%"class.std::vector.3") align 8 %5, ptr noundef nonnull align 8 dereferenceable(56) %13)
  %14 = load ptr, ptr %2, align 8
  %15 = getelementptr inbounds i8, ptr %2, i64 16
  %16 = load <2 x ptr>, ptr %5, align 16
  store <2 x ptr> %16, ptr %2, align 8
  %17 = getelementptr inbounds i8, ptr %5, i64 16
  %18 = load ptr, ptr %17, align 16
  store ptr %18, ptr %15, align 8
  %.not.i.i.i.i.i3 = icmp eq ptr %14, null
  call void @llvm.memset.p0.i64(ptr noundef nonnull align 16 dereferenceable(24) %5, i8 0, i64 24, i1 false)
  br i1 %.not.i.i.i.i.i3, label %_ZNSt6vectorIxSaIxEED2Ev.exit6, label %_ZNSt6vectorIxSaIxEEaSEOS1_.exit4

_ZNSt6vectorIxSaIxEEaSEOS1_.exit4:                ; preds = %_ZNSt6vectorIxSaIxEED2Ev.exit
  call void @_ZdlPv(ptr noundef nonnull %14) #26
  %.pr7 = load ptr, ptr %5, align 16
  %.not.i.i.i5 = icmp eq ptr %.pr7, null
  br i1 %.not.i.i.i5, label %_ZNSt6vectorIxSaIxEED2Ev.exit6, label %19

19:                                               ; preds = %_ZNSt6vectorIxSaIxEEaSEOS1_.exit4
  call void @_ZdlPv(ptr noundef nonnull %.pr7) #26
  br label %_ZNSt6vectorIxSaIxEED2Ev.exit6

_ZNSt6vectorIxSaIxEED2Ev.exit6:                   ; preds = %_ZNSt6vectorIxSaIxEED2Ev.exit, %_ZNSt6vectorIxSaIxEEaSEOS1_.exit4, %19
  ret void
}